; ModuleID = '58/974.c'
source_filename = "58/974.c"
target datalayout = "e-m:e-p270:32:32-p271:32:32-p272:64:64-i64:64-f80:128-n8:16:32:64-S128"
target triple = "x86_64-pc-linux-gnu"

@.str = private unnamed_addr constant [4 x i8] c"%d\0A\00", align 1

; Function Attrs: noinline nounwind uwtable
define dso_local i32 @main() #0 {
  %1 = alloca i32, align 4
  %2 = alloca i32*, align 8
  %3 = alloca i32, align 4
  %4 = alloca i32, align 4
  %5 = alloca i32, align 4
  %6 = alloca [10000 x i32], align 16
  %7 = alloca [81 x i8], align 16
  %8 = alloca i8*, align 8
  store i32 0, i32* %1, align 4
  %9 = getelementptr inbounds [10000 x i32], [10000 x i32]* %6, i64 0, i64 0
  store i32* %9, i32** %2, align 8
  store i32 1, i32* %3, align 4
  br label %10

10:                                               ; preds = %18, %0
  %11 = load i32, i32* %3, align 4
  %12 = icmp sle i32 %11, 100
  br i1 %12, label %13, label %21

13:                                               ; preds = %10
  %14 = load i32*, i32** %2, align 8
  %15 = load i32, i32* %3, align 4
  %16 = sext i32 %15 to i64
  %17 = getelementptr inbounds i32, i32* %14, i64 %16
  store i32 1, i32* %17, align 4
  br label %18

18:                                               ; preds = %13
  %19 = load i32, i32* %3, align 4
  %20 = add nsw i32 %19, 1
  store i32 %20, i32* %3, align 4
  br label %10

21:                                               ; preds = %10
  %22 = call i32 (i8*, ...) @__isoc99_scanf(i8* getelementptr inbounds ([4 x i8], [4 x i8]* @.str, i64 0, i64 0), i32* %5)
  store i32 1, i32* %3, align 4
  br label %23

23:                                               ; preds = %133, %21
  %24 = load i32, i32* %3, align 4
  %25 = load i32, i32* %5, align 4
  %26 = icmp sle i32 %24, %25
  br i1 %26, label %27, label %136

27:                                               ; preds = %23
  %28 = getelementptr inbounds [81 x i8], [81 x i8]* %7, i64 0, i64 0
  %29 = call i32 (i8*, ...) bitcast (i32 (...)* @gets to i32 (i8*, ...)*)(i8* %28)
  %30 = getelementptr inbounds [81 x i8], [81 x i8]* %7, i64 0, i64 0
  store i8* %30, i8** %8, align 8
  %31 = load i8*, i8** %8, align 8
  %32 = load i8, i8* %31, align 1
  %33 = sext i8 %32 to i32
  %34 = icmp slt i32 %33, 65
  br i1 %34, label %55, label %35

35:                                               ; preds = %27
  %36 = load i8*, i8** %8, align 8
  %37 = load i8, i8* %36, align 1
  %38 = sext i8 %37 to i32
  %39 = icmp sgt i32 %38, 90
  br i1 %39, label %40, label %50

40:                                               ; preds = %35
  %41 = load i8*, i8** %8, align 8
  %42 = load i8, i8* %41, align 1
  %43 = sext i8 %42 to i32
  %44 = icmp slt i32 %43, 97
  br i1 %44, label %45, label %50

45:                                               ; preds = %40
  %46 = load i8*, i8** %8, align 8
  %47 = load i8, i8* %46, align 1
  %48 = sext i8 %47 to i32
  %49 = icmp ne i32 %48, 95
  br i1 %49, label %55, label %50

50:                                               ; preds = %45, %40, %35
  %51 = load i8*, i8** %8, align 8
  %52 = load i8, i8* %51, align 1
  %53 = sext i8 %52 to i32
  %54 = icmp sgt i32 %53, 122
  br i1 %54, label %55, label %60

55:                                               ; preds = %50, %45, %27
  %56 = load i32*, i32** %2, align 8
  %57 = load i32, i32* %3, align 4
  %58 = sext i32 %57 to i64
  %59 = getelementptr inbounds i32, i32* %56, i64 %58
  store i32 0, i32* %59, align 4
  br label %60

60:                                               ; preds = %55, %50
  store i32 1, i32* %4, align 4
  br label %61

61:                                               ; preds = %129, %60
  %62 = load i32, i32* %4, align 4
  %63 = sext i32 %62 to i64
  %64 = getelementptr inbounds [81 x i8], [81 x i8]* %7, i64 0, i64 0
  %65 = call i64 @strlen(i8* %64) #3
  %66 = icmp ult i64 %63, %65
  br i1 %66, label %67, label %132

67:                                               ; preds = %61
  %68 = load i8*, i8** %8, align 8
  %69 = load i32, i32* %4, align 4
  %70 = sext i32 %69 to i64
  %71 = getelementptr inbounds i8, i8* %68, i64 %70
  %72 = load i8, i8* %71, align 1
  %73 = sext i8 %72 to i32
  %74 = icmp slt i32 %73, 48
  br i1 %74, label %123, label %75

75:                                               ; preds = %67
  %76 = load i8*, i8** %8, align 8
  %77 = load i32, i32* %4, align 4
  %78 = sext i32 %77 to i64
  %79 = getelementptr inbounds i8, i8* %76, i64 %78
  %80 = load i8, i8* %79, align 1
  %81 = sext i8 %80 to i32
  %82 = icmp sgt i32 %81, 57
  br i1 %82, label %83, label %91

83:                                               ; preds = %75
  %84 = load i8*, i8** %8, align 8
  %85 = load i32, i32* %4, align 4
  %86 = sext i32 %85 to i64
  %87 = getelementptr inbounds i8, i8* %84, i64 %86
  %88 = load i8, i8* %87, align 1
  %89 = sext i8 %88 to i32
  %90 = icmp slt i32 %89, 65
  br i1 %90, label %123, label %91

91:                                               ; preds = %83, %75
  %92 = load i8*, i8** %8, align 8
  %93 = load i32, i32* %4, align 4
  %94 = sext i32 %93 to i64
  %95 = getelementptr inbounds i8, i8* %92, i64 %94
  %96 = load i8, i8* %95, align 1
  %97 = sext i8 %96 to i32
  %98 = icmp sgt i32 %97, 90
  br i1 %98, label %99, label %115

99:                                               ; preds = %91
  %100 = load i8*, i8** %8, align 8
  %101 = load i32, i32* %4, align 4
  %102 = sext i32 %101 to i64
  %103 = getelementptr inbounds i8, i8* %100, i64 %102
  %104 = load i8, i8* %103, align 1
  %105 = sext i8 %104 to i32
  %106 = icmp slt i32 %105, 97
  br i1 %106, label %107, label %115

107:                                              ; preds = %99
  %108 = load i8*, i8** %8, align 8
  %109 = load i32, i32* %4, align 4
  %110 = sext i32 %109 to i64
  %111 = getelementptr inbounds i8, i8* %108, i64 %110
  %112 = load i8, i8* %111, align 1
  %113 = sext i8 %112 to i32
  %114 = icmp ne i32 %113, 95
  br i1 %114, label %123, label %115

115:                                              ; preds = %107, %99, %91
  %116 = load i8*, i8** %8, align 8
  %117 = load i32, i32* %4, align 4
  %118 = sext i32 %117 to i64
  %119 = getelementptr inbounds i8, i8* %116, i64 %118
  %120 = load i8, i8* %119, align 1
  %121 = sext i8 %120 to i32
  %122 = icmp sgt i32 %121, 122
  br i1 %122, label %123, label %128

123:                                              ; preds = %115, %107, %83, %67
  %124 = load i32*, i32** %2, align 8
  %125 = load i32, i32* %3, align 4
  %126 = sext i32 %125 to i64
  %127 = getelementptr inbounds i32, i32* %124, i64 %126
  store i32 0, i32* %127, align 4
  br label %128

128:                                              ; preds = %123, %115
  br label %129

129:                                              ; preds = %128
  %130 = load i32, i32* %4, align 4
  %131 = add nsw i32 %130, 1
  store i32 %131, i32* %4, align 4
  br label %61

132:                                              ; preds = %61
  br label %133

133:                                              ; preds = %132
  %134 = load i32, i32* %3, align 4
  %135 = add nsw i32 %134, 1
  store i32 %135, i32* %3, align 4
  br label %23

136:                                              ; preds = %23
  store i32 1, i32* %3, align 4
  br label %137

137:                                              ; preds = %148, %136
  %138 = load i32, i32* %3, align 4
  %139 = load i32, i32* %5, align 4
  %140 = icmp sle i32 %138, %139
  br i1 %140, label %141, label %151

141:                                              ; preds = %137
  %142 = load i32*, i32** %2, align 8
  %143 = load i32, i32* %3, align 4
  %144 = sext i32 %143 to i64
  %145 = getelementptr inbounds i32, i32* %142, i64 %144
  %146 = load i32, i32* %145, align 4
  %147 = call i32 (i8*, ...) @printf(i8* getelementptr inbounds ([4 x i8], [4 x i8]* @.str, i64 0, i64 0), i32 %146)
  br label %148

148:                                              ; preds = %141
  %149 = load i32, i32* %3, align 4
  %150 = add nsw i32 %149, 1
  store i32 %150, i32* %3, align 4
  br label %137

151:                                              ; preds = %137
  %152 = load i32, i32* %1, align 4
  ret i32 %152
}

declare dso_local i32 @__isoc99_scanf(i8*, ...) #1

declare dso_local i32 @gets(...) #1

; Function Attrs: nounwind readonly
declare dso_local i64 @strlen(i8*) #2

declare dso_local i32 @printf(i8*, ...) #1


!llvm.module.flags = !{!0}
!llvm.ident = !{!1}

!0 = !{i32 1, !"wchar_size", i32 4}
!1 = !{!"clang version 10.0.0-4ubuntu1 "}
